target datalayout = "e-m:e-p270:32:32-p271:32:32-p272:64:64-i64:64-i128:128-f80:128-n8:16:32:64-S128"
target triple = "x86_64-pc-linux-gnu"

%struct.job_record = type { i32, ptr, ptr, ptr, ptr, i16, i32, i32, i32, ptr, i32, ptr, ptr, i16, ptr, double, i64, ptr, ptr, ptr, ptr, ptr, ptr, i32, ptr, i32, i64, i64, i32, i32, ptr, i16, i64, i64, i8, i32, ptr, ptr, ptr, ptr, ptr, ptr, ptr, ptr, i32, ptr, ptr, i32, ptr, i32, ptr, i32, ptr, i32, ptr, ptr, ptr, ptr, ptr, ptr, i32, i16, i64, ptr, ptr, ptr, ptr, %struct.acct_policy_limit_set_t, i16, ptr, ptr, ptr, ptr, ptr, i32, ptr, ptr, ptr, ptr, ptr, i32, i32, ptr, ptr, ptr, i16, ptr, ptr, i8, ptr, ptr, i64, i64, i8, i32, i32, i8, i32, ptr, i32, i64, i32, ptr, ptr, ptr, i8, i16, i64, i32, ptr, ptr, ptr, ptr, ptr, i16, i32, ptr, ptr, ptr, ptr, i32, ptr, i32, i16, i64, ptr, i32, i32, ptr, i64, ptr, ptr, i64, i32, i32, i64, i32, i32, ptr, ptr, ptr, ptr, ptr, ptr, ptr, ptr, ptr, ptr, ptr, ptr, i32, ptr, i16, i16, i16, i16, ptr, i32, i32, i8, i64 }
%struct.acct_policy_limit_set_t = type { i16, i16, ptr }
%struct.node_record = type { ptr, ptr, i16, i64, i64, ptr, ptr, ptr, i16, ptr, i16, i16, i32, i32, i64, ptr, i16, i16, ptr, ptr, ptr, ptr, ptr, i64, i64, ptr, ptr, ptr, ptr, i32, ptr, ptr, i64, i64, i32, ptr, i64, ptr, i32, i16, ptr, ptr, i32, ptr, i32, i8, ptr, i32, i16, i16, ptr, i16, i64, i16, i64, ptr, i64, i32, i16, i64, i16, ptr, i16, i64, ptr, i64, i16, i32, i16, ptr, ptr, ptr, i16, i32, i16, i16, i32, ptr, i16, i32 }
%struct.job_details_t = type { i32, ptr, i64, ptr, i32, ptr, i64, ptr, i16, i16, ptr, i16, i32, i32, i32, i16, ptr, i16, ptr, ptr, ptr, i16, ptr, ptr, ptr, ptr, i32, ptr, ptr, ptr, ptr, ptr, i32, i32, i32, ptr, ptr, i16, i32, i32, i32, i32, i32, i32, i16, i16, i32, i8, i8, i32, i32, i64, i64, i16, i32, ptr, ptr, i8, ptr, i32, ptr, i64, ptr, ptr, i16, i16, i16, i8, ptr, ptr, ptr, ptr, ptr, ptr, i64, i32, i32, i8, ptr, i16, ptr, ptr, i16 }

; Function Attrs: nounwind uwtable
define internal void @_gres_select_explicit(ptr noundef %0, ptr noundef %1) #0 {
  %3 = alloca ptr, align 8
  %4 = alloca ptr, align 8
  store ptr %0, ptr %3, align 8
  store ptr %1, ptr %4, align 8
  %5 = load ptr, ptr %3, align 8
  %6 = icmp ne ptr %5, null
  br i1 %6, label %8, label %7

7:                                                ; preds = %2
  br label %12

8:                                                ; preds = %2
  %9 = load ptr, ptr %3, align 8
  %10 = load ptr, ptr %4, align 8
  %11 = call i32 @list_for_each(ptr noundef %9, ptr noundef @_handle_explicit_req, ptr noundef %10)
  br label %12

12:                                               ; preds = %8, %7
  ret void
}

; Function Attrs: nounwind uwtable
define internal ptr @_handle_exclusive_gres(ptr noundef %0, ptr noundef %1, i1 noundef zeroext %2) #0 {
  %4 = alloca ptr, align 8
  %5 = alloca ptr, align 8
  %6 = alloca ptr, align 8
  %7 = alloca i8, align 1
  %8 = alloca ptr, align 8
  %9 = alloca ptr, align 8
  %10 = alloca i32, align 4
  %11 = alloca i32, align 4
  store ptr %0, ptr %5, align 8
  store ptr %1, ptr %6, align 8
  %12 = zext i1 %2 to i8
  store i8 %12, ptr %7, align 1
  call void @llvm.lifetime.start.p0(i64 8, ptr %8) #8
  store ptr null, ptr %8, align 8
  call void @llvm.lifetime.start.p0(i64 8, ptr %9) #8
  %13 = load i8, ptr %7, align 1, !range !12, !noundef !13
  %14 = trunc i8 %13 to i1
  br i1 %14, label %18, label %15

15:                                               ; preds = %3
  %16 = call i32 @gres_get_gres_cnt()
  %17 = icmp ne i32 %16, 0
  br i1 %17, label %19, label %18

18:                                               ; preds = %15, %3
  store ptr null, ptr %4, align 8
  store i32 1, ptr %10, align 4
  br label %65

19:                                               ; preds = %15
  %20 = load ptr, ptr %5, align 8
  %21 = getelementptr inbounds nuw %struct.job_record, ptr %20, i32 0, i32 30
  %22 = load ptr, ptr %21, align 8
  %23 = icmp ne ptr %22, null
  br i1 %23, label %24, label %33

24:                                               ; preds = %19
  %25 = load ptr, ptr %5, align 8
  %26 = getelementptr inbounds nuw %struct.job_record, ptr %25, i32 0, i32 30
  %27 = load ptr, ptr %26, align 8
  %28 = getelementptr inbounds nuw %struct.job_details_t, ptr %27, i32 0, i32 77
  %29 = load i8, ptr %28, align 8
  %30 = zext i8 %29 to i32
  %31 = and i32 %30, 1
  %32 = icmp ne i32 %31, 0
  br i1 %32, label %34, label %33

33:                                               ; preds = %24, %19
  store ptr null, ptr %4, align 8
  store i32 1, ptr %10, align 4
  br label %65

34:                                               ; preds = %24
  %35 = load ptr, ptr %5, align 8
  %36 = getelementptr inbounds nuw %struct.job_record, ptr %35, i32 0, i32 41
  %37 = load ptr, ptr %36, align 8
  %38 = icmp ne ptr %37, null
  br i1 %38, label %39, label %43

39:                                               ; preds = %34
  %40 = load ptr, ptr %5, align 8
  %41 = getelementptr inbounds nuw %struct.job_record, ptr %40, i32 0, i32 41
  %42 = load ptr, ptr %41, align 8
  call void @_gres_select_explicit(ptr noundef %42, ptr noundef %8)
  br label %43

43:                                               ; preds = %39, %34
  call void @llvm.lifetime.start.p0(i64 4, ptr %11) #8
  store i32 0, ptr %11, align 4
  br label %44

44:                                               ; preds = %60, %43
  %45 = load ptr, ptr %6, align 8
  %46 = call ptr @next_node_bitmap(ptr noundef %45, ptr noundef %11)
  store ptr %46, ptr %9, align 8
  %47 = icmp ne ptr %46, null
  br i1 %47, label %49, label %48

48:                                               ; preds = %44
  store i32 2, ptr %10, align 4
  call void @llvm.lifetime.end.p0(i64 4, ptr %11) #8
  br label %63

49:                                               ; preds = %44
  %50 = load ptr, ptr %9, align 8
  %51 = getelementptr inbounds nuw %struct.node_record, ptr %50, i32 0, i32 28
  %52 = load ptr, ptr %51, align 8
  %53 = load ptr, ptr %5, align 8
  %54 = getelementptr inbounds nuw %struct.job_record, ptr %53, i32 0, i32 53
  %55 = load i32, ptr %54, align 8
  %56 = load ptr, ptr %9, align 8
  %57 = getelementptr inbounds nuw %struct.node_record, ptr %56, i32 0, i32 37
  %58 = load ptr, ptr %57, align 8
  %59 = call i32 @gres_stepmgr_job_select_whole_node(ptr noundef %8, ptr noundef %52, i32 noundef %55, ptr noundef %58)
  br label %60

60:                                               ; preds = %49
  %61 = load i32, ptr %11, align 4
  %62 = add nsw i32 %61, 1
  store i32 %62, ptr %11, align 4
  br label %44, !llvm.loop !36

63:                                               ; preds = %48
  %64 = load ptr, ptr %8, align 8
  store ptr %64, ptr %4, align 8
  store i32 1, ptr %10, align 4
  br label %65

65:                                               ; preds = %63, %33, %18
  call void @llvm.lifetime.end.p0(i64 8, ptr %9) #8
  call void @llvm.lifetime.end.p0(i64 8, ptr %8) #8
  %66 = load ptr, ptr %4, align 8
  ret ptr %66
}