; Function Attrs: nounwind uwtable
define internal fastcc ptr @_handle_exclusive_gres(ptr noundef readonly captures(none) %0, ptr noundef nonnull %1, i1 noundef zeroext %2) unnamed_addr #0 {
  %4 = alloca ptr, align 8
  %5 = alloca i32, align 4
  call void @llvm.lifetime.start.p0(i64 8, ptr nonnull %4) #14
  store ptr null, ptr %4, align 8
  br i1 %2, label %35, label %6

6:                                                ; preds = %3
  %7 = tail call i32 @gres_get_gres_cnt() #14
  %.not = icmp eq i32 %7, 0
  br i1 %.not, label %35, label %8

8:                                                ; preds = %6
  %9 = getelementptr inbounds nuw i8, ptr %0, i64 216
  %10 = load ptr, ptr %9, align 8
  %.not12 = icmp eq ptr %10, null
  br i1 %.not12, label %35, label %11

11:                                               ; preds = %8
  %12 = getelementptr inbounds nuw i8, ptr %10, i64 480
  %13 = load i8, ptr %12, align 8
  %14 = and i8 %13, 1
  %.not13 = icmp eq i8 %14, 0
  br i1 %.not13, label %35, label %15

15:                                               ; preds = %11
  %16 = getelementptr inbounds nuw i8, ptr %0, i64 296
  %17 = load ptr, ptr %16, align 8
  %.not14 = icmp eq ptr %17, null
  br i1 %.not14, label %20, label %18

18:                                               ; preds = %15
  %19 = call i32 @list_for_each(ptr noundef nonnull %17, ptr noundef nonnull @_handle_explicit_req, ptr noundef nonnull %4) #14
  br label %20

20:                                               ; preds = %18, %15
  call void @llvm.lifetime.start.p0(i64 4, ptr nonnull %5) #14
  store i32 0, ptr %5, align 4
  %21 = call ptr @next_node_bitmap(ptr noundef nonnull %1, ptr noundef nonnull %5) #14
  %.not1516 = icmp eq ptr %21, null
  br i1 %.not1516, label %._crit_edge, label %.lr.ph

.lr.ph:                                           ; preds = %20
  %22 = getelementptr inbounds nuw i8, ptr %0, i64 392
  br label %24

._crit_edge:                                      ; preds = %24, %20
  call void @llvm.lifetime.end.p0(i64 4, ptr nonnull %5) #14
  %23 = load ptr, ptr %4, align 8
  br label %35

24:                                               ; preds = %.lr.ph, %24
  %25 = phi ptr [ %21, %.lr.ph ], [ %34, %24 ]
  %26 = getelementptr inbounds nuw i8, ptr %25, i64 200
  %27 = load ptr, ptr %26, align 8
  %28 = load i32, ptr %22, align 8
  %29 = getelementptr inbounds nuw i8, ptr %25, i64 272
  %30 = load ptr, ptr %29, align 8
  %31 = call i32 @gres_stepmgr_job_select_whole_node(ptr noundef nonnull %4, ptr noundef %27, i32 noundef %28, ptr noundef %30) #14
  %32 = load i32, ptr %5, align 4
  %33 = add nsw i32 %32, 1
  store i32 %33, ptr %5, align 4
  %34 = call ptr @next_node_bitmap(ptr noundef nonnull %1, ptr noundef nonnull %5) #14
  %.not15 = icmp eq ptr %34, null
  br i1 %.not15, label %._crit_edge, label %24, !llvm.loop !41

35:                                               ; preds = %8, %11, %3, %6, %._crit_edge
  %.0 = phi ptr [ %23, %._crit_edge ], [ null, %6 ], [ null, %3 ], [ null, %11 ], [ null, %8 ]
  call void @llvm.lifetime.end.p0(i64 8, ptr nonnull %4) #14
  ret ptr %.0
}